; Function Attrs: mustprogress uwtable
define void @_ZN24LibRaw_LjpegDecompressorC2EPhjbb(ptr noundef nonnull align 8 dereferenceable(108) initializes((0, 57), (80, 108)) %0, ptr noundef %1, i32 noundef %2, i1 noundef zeroext %3, i1 noundef zeroext %4) unnamed_addr #1 align 2 personality ptr @__gxx_personality_v0 {
  store ptr %1, ptr %0, align 8, !tbaa !14
  %6 = getelementptr inbounds nuw i8, ptr %0, i64 8
  store i32 %2, ptr %6, align 8, !tbaa !13
  %7 = getelementptr inbounds nuw i8, ptr %0, i64 12
  %8 = getelementptr inbounds nuw i8, ptr %0, i64 80
  tail call void @llvm.memset.p0.i64(ptr noundef nonnull align 8 dereferenceable(24) %8, i8 0, i64 24, i1 false)
  %9 = getelementptr inbounds nuw i8, ptr %0, i64 104
  tail call void @llvm.memset.p0.i64(ptr noundef nonnull align 4 dereferenceable(45) %7, i8 0, i64 45, i1 false)
  store i32 1, ptr %9, align 8, !tbaa !18
  invoke void @_ZN24LibRaw_LjpegDecompressor10initializeEbb(ptr noundef nonnull align 8 dereferenceable(108) %0, i1 noundef zeroext %3, i1 noundef zeroext %4)
          to label %10 unwind label %11

10:                                               ; preds = %5
  ret void

11:                                               ; preds = %5
  %12 = landingpad { ptr, i32 }
          cleanup
  tail call void @_ZNSt6vectorI9HuffTableSaIS0_EED2Ev(ptr noundef nonnull align 8 dereferenceable(24) %8) #17
  %13 = getelementptr inbounds nuw i8, ptr %0, i64 32
  %14 = load ptr, ptr %13, align 8, !tbaa !33
  %.not.i.i.i.i = icmp eq ptr %14, null
  br i1 %.not.i.i.i.i, label %_ZN14LibRaw_SOFInfoD2Ev.exit, label %15

15:                                               ; preds = %11
  %16 = getelementptr inbounds nuw i8, ptr %0, i64 48
  %17 = load ptr, ptr %16, align 8, !tbaa !34
  %18 = ptrtoint ptr %17 to i64
  %19 = ptrtoint ptr %14 to i64
  %20 = sub i64 %18, %19
  tail call void @_ZdlPvm(ptr noundef nonnull %14, i64 noundef %20) #18
  br label %_ZN14LibRaw_SOFInfoD2Ev.exit

_ZN14LibRaw_SOFInfoD2Ev.exit:                     ; preds = %11, %15
  resume { ptr, i32 } %12
}